target datalayout = "e-m:e-p270:32:32-p271:32:32-p272:64:64-i64:64-i128:128-f80:128-n8:16:32:64-S128"
target triple = "x86_64-pc-linux-gnu"

%struct.__va_list_tag = type { i32, i32, ptr, ptr }

@argv1_addr = internal global ptr null, align 8
@argv_start = internal global ptr null, align 8
@argv_len = internal global i64 0, align 8
@argv_env_len = internal global i64 0, align 8

; Function Attrs: nounwind sspstrong uwtable
define dso_local void @setproctitle(ptr noundef %0, ...) #0 {
  %2 = alloca ptr, align 8
  %3 = alloca [1 x %struct.__va_list_tag], align 16
  %4 = alloca [1024 x i8], align 16
  %5 = alloca i64, align 8
  %6 = alloca i64, align 8
  %7 = alloca i32, align 4
  store ptr %0, ptr %2, align 8, !tbaa !14
  call void @llvm.lifetime.start.p0(i64 24, ptr %3) #6
  call void @llvm.lifetime.start.p0(i64 1024, ptr %4) #6
  call void @llvm.lifetime.start.p0(i64 8, ptr %5) #6
  call void @llvm.lifetime.start.p0(i64 8, ptr %6) #6
  %8 = load i64, ptr @argv_env_len, align 8, !tbaa !20
  %9 = icmp ule i64 %8, 0
  br i1 %9, label %10, label %11

10:                                               ; preds = %1
  store i32 1, ptr %7, align 4
  br label %44

11:                                               ; preds = %1
  %12 = getelementptr inbounds [1 x %struct.__va_list_tag], ptr %3, i64 0, i64 0
  call void @llvm.va_start.p0(ptr %12)
  %13 = getelementptr inbounds [1024 x i8], ptr %4, i64 0, i64 0
  %14 = load ptr, ptr %2, align 8, !tbaa !14
  %15 = getelementptr inbounds [1 x %struct.__va_list_tag], ptr %3, i64 0, i64 0
  %16 = call i32 @ruby_vsnprintf(ptr noundef %13, i64 noundef 1024, ptr noundef %14, ptr noundef %15)
  %17 = getelementptr inbounds [1 x %struct.__va_list_tag], ptr %3, i64 0, i64 0
  call void @llvm.va_end.p0(ptr %17)
  %18 = load ptr, ptr @argv_start, align 8, !tbaa !14
  %19 = getelementptr inbounds [1024 x i8], ptr %4, i64 0, i64 0
  %20 = load i64, ptr @argv_env_len, align 8, !tbaa !20
  %21 = call i64 @strlcpy(ptr noundef %18, ptr noundef %19, i64 noundef %20)
  store i64 %21, ptr %5, align 8, !tbaa !20
  %22 = load i64, ptr %5, align 8, !tbaa !20
  %23 = load i64, ptr @argv_len, align 8, !tbaa !20
  %24 = icmp ugt i64 %22, %23
  br i1 %24, label %25, label %27

25:                                               ; preds = %11
  %26 = load i64, ptr @argv_env_len, align 8, !tbaa !20
  br label %29

27:                                               ; preds = %11
  %28 = load i64, ptr @argv_len, align 8, !tbaa !20
  br label %29

29:                                               ; preds = %27, %25
  %30 = phi i64 [ %26, %25 ], [ %28, %27 ]
  store i64 %30, ptr %6, align 8, !tbaa !20
  br label %31

31:                                               ; preds = %39, %29
  %32 = load i64, ptr %5, align 8, !tbaa !20
  %33 = load i64, ptr %6, align 8, !tbaa !20
  %34 = icmp ult i64 %32, %33
  br i1 %34, label %35, label %42

35:                                               ; preds = %31
  %36 = load ptr, ptr @argv_start, align 8, !tbaa !14
  %37 = load i64, ptr %5, align 8, !tbaa !20
  %38 = getelementptr i8, ptr %36, i64 %37
  store i8 0, ptr %38, align 1, !tbaa !24
  br label %39

39:                                               ; preds = %35
  %40 = load i64, ptr %5, align 8, !tbaa !20
  %41 = add i64 %40, 1
  store i64 %41, ptr %5, align 8, !tbaa !20
  br label %31, !llvm.loop !25

42:                                               ; preds = %31
  %43 = load ptr, ptr @argv1_addr, align 8, !tbaa !11
  store ptr null, ptr %43, align 8, !tbaa !14
  store i32 0, ptr %7, align 4
  br label %44

44:                                               ; preds = %42, %10
  call void @llvm.lifetime.end.p0(i64 8, ptr %6) #6
  call void @llvm.lifetime.end.p0(i64 8, ptr %5) #6
  call void @llvm.lifetime.end.p0(i64 1024, ptr %4) #6
  call void @llvm.lifetime.end.p0(i64 24, ptr %3) #6
  %45 = load i32, ptr %7, align 4
  switch i32 %45, label %47 [
    i32 0, label %46
    i32 1, label %46
  ]

46:                                               ; preds = %44, %44
  ret void

47:                                               ; preds = %44
  unreachable
}