; Function Attrs: nounwind sspstrong uwtable
define dso_local void @setproctitle(ptr noundef %0, ...) local_unnamed_addr #0 {
  %2 = alloca [1 x %struct.__va_list_tag], align 16
  %3 = alloca [1024 x i8], align 16
  call void @llvm.lifetime.start.p0(i64 24, ptr nonnull %2) #10
  call void @llvm.lifetime.start.p0(i64 1024, ptr nonnull %3) #10
  %4 = load i64, ptr @argv_env_len, align 8, !tbaa !18
  %5 = icmp eq i64 %4, 0
  br i1 %5, label %19, label %6

6:                                                ; preds = %1
  call void @llvm.va_start.p0(ptr nonnull %2)
  %7 = call i32 @ruby_vsnprintf(ptr noundef nonnull %3, i64 noundef 1024, ptr noundef %0, ptr noundef nonnull %2) #10
  call void @llvm.va_end.p0(ptr nonnull %2)
  %8 = load ptr, ptr @argv_start, align 8, !tbaa !12
  %9 = load i64, ptr @argv_env_len, align 8, !tbaa !18
  %10 = call i64 @strlcpy(ptr noundef %8, ptr noundef nonnull dereferenceable(1) %3, i64 noundef %9) #10
  %11 = load i64, ptr @argv_len, align 8, !tbaa !18
  %12 = icmp ugt i64 %10, %11
  %13 = load i64, ptr @argv_env_len, align 8
  %14 = select i1 %12, i64 %13, i64 %11
  %15 = icmp ult i64 %10, %14
  br i1 %15, label %.lr.ph, label %._crit_edge

.lr.ph:                                           ; preds = %6
  %16 = load ptr, ptr @argv_start, align 8, !tbaa !12
  %scevgep = getelementptr i8, ptr %16, i64 %10
  %17 = sub nuw i64 %14, %10
  call void @llvm.memset.p0.i64(ptr align 1 %scevgep, i8 0, i64 %17, i1 false), !tbaa !22
  br label %._crit_edge

._crit_edge:                                      ; preds = %.lr.ph, %6
  %18 = load ptr, ptr @argv1_addr, align 8, !tbaa !7
  store ptr null, ptr %18, align 8, !tbaa !12
  br label %19

19:                                               ; preds = %1, %._crit_edge
  call void @llvm.lifetime.end.p0(i64 1024, ptr nonnull %3) #10
  call void @llvm.lifetime.end.p0(i64 24, ptr nonnull %2) #10
  ret void
}